target datalayout = "e-m:e-p270:32:32-p271:32:32-p272:64:64-i64:64-i128:128-f80:128-n8:16:32:64-S128"
target triple = "x86_64-pc-linux-gnu"

@.str = private unnamed_addr constant [1 x i8] zeroinitializer, align 1

; Function Attrs: inlinehint mustprogress nounwind uwtable
define linkonce_odr noundef nonnull align 8 dereferenceable(8) ptr @_ZSt3minImERKT_S2_S2_(ptr noundef nonnull align 8 dereferenceable(8) %0, ptr noundef nonnull align 8 dereferenceable(8) %1) #7 comdat {
  %3 = alloca ptr, align 8
  %4 = alloca ptr, align 8
  %5 = alloca ptr, align 8
  store ptr %0, ptr %4, align 8, !tbaa !15
  store ptr %1, ptr %5, align 8, !tbaa !15
  %6 = load ptr, ptr %5, align 8, !tbaa !15
  %7 = load i64, ptr %6, align 8, !tbaa !8
  %8 = load ptr, ptr %4, align 8, !tbaa !15
  %9 = load i64, ptr %8, align 8, !tbaa !8
  %10 = icmp ult i64 %7, %9
  br i1 %10, label %11, label %13

11:                                               ; preds = %2
  %12 = load ptr, ptr %5, align 8, !tbaa !15
  store ptr %12, ptr %3, align 8
  br label %15

13:                                               ; preds = %2
  %14 = load ptr, ptr %4, align 8, !tbaa !15
  store ptr %14, ptr %3, align 8
  br label %15

15:                                               ; preds = %13, %11
  %16 = load ptr, ptr %3, align 8
  ret ptr %16
}

; Function Attrs: mustprogress uwtable
define hidden noundef i32 @_ZN2cv2fs10strcasecmpEPKcS2_(ptr noundef %0, ptr noundef %1) #4 {
  %3 = alloca i32, align 4
  %4 = alloca ptr, align 8
  %5 = alloca ptr, align 8
  %6 = alloca ptr, align 8
  %7 = alloca i64, align 8
  %8 = alloca i64, align 8
  %9 = alloca i64, align 8
  %10 = alloca i64, align 8
  %11 = alloca i32, align 4
  %12 = alloca i32, align 4
  store ptr %0, ptr %4, align 8, !tbaa !3
  store ptr %1, ptr %5, align 8, !tbaa !3
  call void @llvm.lifetime.start.p0(i64 8, ptr %6) #3
  store ptr @.str, ptr %6, align 8, !tbaa !3
  %13 = load ptr, ptr %4, align 8, !tbaa !3
  %14 = icmp ne ptr %13, null
  br i1 %14, label %17, label %15

15:                                               ; preds = %2
  %16 = load ptr, ptr %6, align 8, !tbaa !3
  store ptr %16, ptr %4, align 8, !tbaa !3
  br label %17

17:                                               ; preds = %15, %2
  %18 = load ptr, ptr %5, align 8, !tbaa !3
  %19 = icmp ne ptr %18, null
  br i1 %19, label %22, label %20

20:                                               ; preds = %17
  %21 = load ptr, ptr %6, align 8, !tbaa !3
  store ptr %21, ptr %5, align 8, !tbaa !3
  br label %22

22:                                               ; preds = %20, %17
  call void @llvm.lifetime.start.p0(i64 8, ptr %7) #3
  %23 = load ptr, ptr %4, align 8, !tbaa !3
  %24 = call i64 @strlen(ptr noundef %23) #24
  store i64 %24, ptr %7, align 8, !tbaa !8
  call void @llvm.lifetime.start.p0(i64 8, ptr %8) #3
  %25 = load ptr, ptr %5, align 8, !tbaa !3
  %26 = call i64 @strlen(ptr noundef %25) #24
  store i64 %26, ptr %8, align 8, !tbaa !8
  call void @llvm.lifetime.start.p0(i64 8, ptr %9) #3
  call void @llvm.lifetime.start.p0(i64 8, ptr %10) #3
  %27 = call noundef nonnull align 8 dereferenceable(8) ptr @_ZSt3minImERKT_S2_S2_(ptr noundef nonnull align 8 dereferenceable(8) %7, ptr noundef nonnull align 8 dereferenceable(8) %8)
  %28 = load i64, ptr %27, align 8, !tbaa !8
  store i64 %28, ptr %10, align 8, !tbaa !8
  store i64 0, ptr %9, align 8, !tbaa !8
  br label %29

29:                                               ; preds = %55, %22
  %30 = load i64, ptr %9, align 8, !tbaa !8
  %31 = load i64, ptr %10, align 8, !tbaa !8
  %32 = icmp ult i64 %30, %31
  br i1 %32, label %33, label %58

33:                                               ; preds = %29
  call void @llvm.lifetime.start.p0(i64 4, ptr %11) #3
  %34 = load ptr, ptr %4, align 8, !tbaa !3
  %35 = load i64, ptr %9, align 8, !tbaa !8
  %36 = getelementptr inbounds nuw i8, ptr %34, i64 %35
  %37 = load i8, ptr %36, align 1, !tbaa !10
  %38 = sext i8 %37 to i32
  %39 = call i32 @tolower(i32 noundef %38) #24
  %40 = load ptr, ptr %5, align 8, !tbaa !3
  %41 = load i64, ptr %9, align 8, !tbaa !8
  %42 = getelementptr inbounds nuw i8, ptr %40, i64 %41
  %43 = load i8, ptr %42, align 1, !tbaa !10
  %44 = sext i8 %43 to i32
  %45 = call i32 @tolower(i32 noundef %44) #24
  %46 = sub nsw i32 %39, %45
  store i32 %46, ptr %11, align 4, !tbaa !11
  %47 = load i32, ptr %11, align 4, !tbaa !11
  %48 = icmp ne i32 %47, 0
  br i1 %48, label %49, label %51

49:                                               ; preds = %33
  %50 = load i32, ptr %11, align 4, !tbaa !11
  store i32 %50, ptr %3, align 4
  store i32 1, ptr %12, align 4
  br label %52

51:                                               ; preds = %33
  store i32 0, ptr %12, align 4
  br label %52

52:                                               ; preds = %51, %49
  call void @llvm.lifetime.end.p0(i64 4, ptr %11) #3
  %53 = load i32, ptr %12, align 4
  switch i32 %53, label %70 [
    i32 0, label %54
  ]

54:                                               ; preds = %52
  br label %55

55:                                               ; preds = %54
  %56 = load i64, ptr %9, align 8, !tbaa !8
  %57 = add i64 %56, 1
  store i64 %57, ptr %9, align 8, !tbaa !8
  br label %29, !llvm.loop !13

58:                                               ; preds = %29
  %59 = load i64, ptr %7, align 8, !tbaa !8
  %60 = load i64, ptr %8, align 8, !tbaa !8
  %61 = icmp ult i64 %59, %60
  br i1 %61, label %62, label %63

62:                                               ; preds = %58
  br label %68

63:                                               ; preds = %58
  %64 = load i64, ptr %7, align 8, !tbaa !8
  %65 = load i64, ptr %8, align 8, !tbaa !8
  %66 = icmp ugt i64 %64, %65
  %67 = select i1 %66, i32 1, i32 0
  br label %68

68:                                               ; preds = %63, %62
  %69 = phi i32 [ -1, %62 ], [ %67, %63 ]
  store i32 %69, ptr %3, align 4
  store i32 1, ptr %12, align 4
  br label %70

70:                                               ; preds = %68, %52
  call void @llvm.lifetime.end.p0(i64 8, ptr %10) #3
  call void @llvm.lifetime.end.p0(i64 8, ptr %9) #3
  call void @llvm.lifetime.end.p0(i64 8, ptr %8) #3
  call void @llvm.lifetime.end.p0(i64 8, ptr %7) #3
  call void @llvm.lifetime.end.p0(i64 8, ptr %6) #3
  %71 = load i32, ptr %3, align 4
  ret i32 %71
}