; Function Attrs: mustprogress nofree nounwind willreturn memory(read) uwtable
define hidden noundef i32 @_ZN2cv2fs10strcasecmpEPKcS2_(ptr noundef readonly %0, ptr noundef readonly %1) local_unnamed_addr #3 {
  %.not = icmp eq ptr %0, null
  %spec.select = select i1 %.not, ptr @.str, ptr %0
  %.not23 = icmp eq ptr %1, null
  %.019 = select i1 %.not23, ptr @.str, ptr %1
  %3 = tail call i64 @strlen(ptr noundef nonnull dereferenceable(1) %spec.select) #40
  %4 = tail call i64 @strlen(ptr noundef nonnull dereferenceable(1) %.019) #40
  %.sroa.speculated = tail call i64 @llvm.umin.i64(i64 %4, i64 %3)
  %.not32 = icmp eq i64 %.sroa.speculated, 0
  br i1 %.not32, label %._crit_edge, label %.lr.ph

5:                                                ; preds = %.lr.ph
  %6 = add nuw i64 %.01831, 1
  %exitcond.not = icmp eq i64 %6, %.sroa.speculated
  br i1 %exitcond.not, label %._crit_edge, label %.lr.ph, !llvm.loop !3

.lr.ph:                                           ; preds = %2, %5
  %.01831 = phi i64 [ %6, %5 ], [ 0, %2 ]
  %7 = getelementptr inbounds nuw i8, ptr %spec.select, i64 %.01831
  %8 = load i8, ptr %7, align 1, !tbaa !5
  %9 = sext i8 %8 to i32
  %10 = tail call i32 @tolower(i32 noundef %9) #40
  %11 = getelementptr inbounds nuw i8, ptr %.019, i64 %.01831
  %12 = load i8, ptr %11, align 1, !tbaa !5
  %13 = sext i8 %12 to i32
  %14 = tail call i32 @tolower(i32 noundef %13) #40
  %15 = sub nsw i32 %10, %14
  %.not24 = icmp eq i32 %15, 0
  br i1 %.not24, label %5, label %.loopexit

._crit_edge:                                      ; preds = %5, %2
  %16 = tail call i32 @llvm.ucmp.i32.i64(i64 %3, i64 %4)
  br label %.loopexit

.loopexit:                                        ; preds = %.lr.ph, %._crit_edge
  %.2 = phi i32 [ %16, %._crit_edge ], [ %15, %.lr.ph ]
  ret i32 %.2
}